	.file	"hw3.cc"
	.text
.Ltext0:
	.section	.rodata.str1.1,"aMS",@progbits,1
.LC0:
	.string	","
	.section	.text.unlikely._ZlsRSoRK6BigNum,"axG",@progbits,_ZlsRSoRK6BigNum,comdat
.LCOLDB1:
	.section	.text._ZlsRSoRK6BigNum,"axG",@progbits,_ZlsRSoRK6BigNum,comdat
.LHOTB1:
	.p2align 4,,15
	.section	.text.unlikely._ZlsRSoRK6BigNum,"axG",@progbits,_ZlsRSoRK6BigNum,comdat
.Ltext_cold0:
	.section	.text._ZlsRSoRK6BigNum,"axG",@progbits,_ZlsRSoRK6BigNum,comdat
	.weak	_ZlsRSoRK6BigNum
	.type	_ZlsRSoRK6BigNum, @function
_ZlsRSoRK6BigNum:
.LFB1459:
	.file 1 "BigNum.hh"
	.loc 1 15 0
	.cfi_startproc
.LVL0:
	pushq	%r13
	.cfi_def_cfa_offset 16
	.cfi_offset 13, -16
	pushq	%r12
	.cfi_def_cfa_offset 24
	.cfi_offset 12, -24
	pushq	%rbp
	.cfi_def_cfa_offset 32
	.cfi_offset 6, -32
	pushq	%rbx
	.cfi_def_cfa_offset 40
	.cfi_offset 3, -40
	subq	$8, %rsp
	.cfi_def_cfa_offset 48
	.loc 1 16 0
	movl	12(%rsi), %ebx
	movl	8(%rsi), %ebp
	movl	4(%rsi), %r12d
.LVL1:
.LBB60:
.LBB61:
	.file 2 "/usr/include/c++/5/ostream"
	.loc 2 196 0
	movl	(%rsi), %esi
.LVL2:
	call	_ZNSo9_M_insertImEERSoT_
.LVL3:
.LBE61:
.LBE60:
.LBB63:
.LBB64:
	.loc 2 561 0
	movl	$1, %edx
.LBE64:
.LBE63:
.LBB66:
.LBB62:
	.loc 2 196 0
	movq	%rax, %r13
.LVL4:
.LBE62:
.LBE66:
.LBB67:
.LBB65:
	.loc 2 561 0
	movl	$.LC0, %esi
	movq	%rax, %rdi
	call	_ZSt16__ostream_insertIcSt11char_traitsIcEERSt13basic_ostreamIT_T0_ES6_PKS3_l
.LVL5:
.LBE65:
.LBE67:
.LBB68:
.LBB69:
	.loc 2 196 0
	movl	%r12d, %esi
	movq	%r13, %rdi
	call	_ZNSo9_M_insertImEERSoT_
.LVL6:
.LBE69:
.LBE68:
.LBB71:
.LBB72:
	.loc 2 561 0
	movl	$1, %edx
.LBE72:
.LBE71:
.LBB74:
.LBB70:
	.loc 2 196 0
	movq	%rax, %r12
.LVL7:
.LBE70:
.LBE74:
.LBB75:
.LBB73:
	.loc 2 561 0
	movl	$.LC0, %esi
	movq	%rax, %rdi
	call	_ZSt16__ostream_insertIcSt11char_traitsIcEERSt13basic_ostreamIT_T0_ES6_PKS3_l
.LVL8:
.LBE73:
.LBE75:
.LBB76:
.LBB77:
	.loc 2 196 0
	movl	%ebp, %esi
	movq	%r12, %rdi
	call	_ZNSo9_M_insertImEERSoT_
.LVL9:
.LBE77:
.LBE76:
.LBB79:
.LBB80:
	.loc 2 561 0
	movl	$.LC0, %esi
	movq	%rax, %rdi
	movl	$1, %edx
.LBE80:
.LBE79:
.LBB82:
.LBB78:
	.loc 2 196 0
	movq	%rax, %rbp
.LVL10:
.LBE78:
.LBE82:
.LBB83:
.LBB81:
	.loc 2 561 0
	call	_ZSt16__ostream_insertIcSt11char_traitsIcEERSt13basic_ostreamIT_T0_ES6_PKS3_l
.LVL11:
.LBE81:
.LBE83:
	.loc 1 17 0
	addq	$8, %rsp
	.cfi_def_cfa_offset 40
.LBB84:
.LBB85:
	.loc 2 196 0
	movl	%ebx, %esi
	movq	%rbp, %rdi
.LBE85:
.LBE84:
	.loc 1 17 0
	popq	%rbx
	.cfi_def_cfa_offset 32
.LVL12:
	popq	%rbp
	.cfi_def_cfa_offset 24
.LVL13:
	popq	%r12
	.cfi_def_cfa_offset 16
	popq	%r13
	.cfi_def_cfa_offset 8
.LBB87:
.LBB86:
	.loc 2 196 0
	jmp	_ZNSo9_M_insertImEERSoT_
.LVL14:
.LBE86:
.LBE87:
	.cfi_endproc
.LFE1459:
	.size	_ZlsRSoRK6BigNum, .-_ZlsRSoRK6BigNum
	.section	.text.unlikely._ZlsRSoRK6BigNum,"axG",@progbits,_ZlsRSoRK6BigNum,comdat
.LCOLDE1:
	.section	.text._ZlsRSoRK6BigNum,"axG",@progbits,_ZlsRSoRK6BigNum,comdat
.LHOTE1:
	.section	.text.unlikely,"ax",@progbits
.LCOLDB2:
	.section	.text.startup,"ax",@progbits
.LHOTB2:
	.p2align 4,,15
	.globl	main
	.type	main, @function
main:
.LFB1460:
	.file 3 "hw3.cc"
	.loc 3 5 0
	.cfi_startproc
	subq	$136, %rsp
	.cfi_def_cfa_offset 144
	.loc 3 9 0
	leaq	32(%rsp), %rdx
	leaq	16(%rsp), %rsi
	leaq	48(%rsp), %rdi
	.loc 3 5 0
	movq	%fs:40, %rax
	movq	%rax, 120(%rsp)
	xorl	%eax, %eax
.LVL15:
.LBB88:
.LBB89:
	.loc 1 11 0
	movl	$0, 16(%rsp)
	movl	$0, 20(%rsp)
	movl	$0, 24(%rsp)
	movl	$3, 28(%rsp)
.LVL16:
.LBE89:
.LBE88:
.LBB90:
.LBB91:
	movl	$0, 32(%rsp)
	movl	$0, 36(%rsp)
	movl	$0, 40(%rsp)
	movl	$5, 44(%rsp)
.LVL17:
.LBE91:
.LBE90:
	.loc 3 9 0
	call	_Z6add128R6BigNumRKS_S2_
.LVL18:
	.loc 3 15 0
	leaq	48(%rsp), %rsi
.LVL19:
	movl	$_ZSt4cout, %edi
	call	_ZlsRSoRK6BigNum
.LVL20:
.LBB92:
.LBB93:
	.loc 2 509 0
	leaq	14(%rsp), %rsi
	movl	$1, %edx
	movq	%rax, %rdi
	movb	$10, 14(%rsp)
.LVL21:
	call	_ZSt16__ostream_insertIcSt11char_traitsIcEERSt13basic_ostreamIT_T0_ES6_PKS3_l
.LVL22:
.LBE93:
.LBE92:
	.loc 3 21 0
	leaq	80(%rsp), %rdx
	leaq	64(%rsp), %rsi
.LVL23:
	leaq	96(%rsp), %rdi
.LBB94:
.LBB95:
	.loc 1 11 0
	movl	$0, 64(%rsp)
	movl	$0, 68(%rsp)
	movl	$0, 72(%rsp)
	movl	$-1, 76(%rsp)
.LVL24:
.LBE95:
.LBE94:
.LBB96:
.LBB97:
	movl	$0, 80(%rsp)
	movl	$0, 84(%rsp)
	movl	$0, 88(%rsp)
	movl	$1, 92(%rsp)
.LVL25:
.LBE97:
.LBE96:
	.loc 3 21 0
	call	_Z6add128R6BigNumRKS_S2_
.LVL26:
	.loc 3 27 0
	leaq	96(%rsp), %rsi
.LVL27:
	movl	$_ZSt4cout, %edi
	call	_ZlsRSoRK6BigNum
.LVL28:
.LBB98:
.LBB99:
	.loc 2 509 0
	leaq	15(%rsp), %rsi
	movl	$1, %edx
	movq	%rax, %rdi
	movb	$10, 15(%rsp)
.LVL29:
	call	_ZSt16__ostream_insertIcSt11char_traitsIcEERSt13basic_ostreamIT_T0_ES6_PKS3_l
.LVL30:
.LBE99:
.LBE98:
	.loc 3 28 0
	movq	120(%rsp), %rcx
	xorq	%fs:40, %rcx
	jne	.L7
	xorl	%eax, %eax
	addq	$136, %rsp
	.cfi_remember_state
	.cfi_def_cfa_offset 8
	ret
.L7:
	.cfi_restore_state
	call	__stack_chk_fail
.LVL31:
	.cfi_endproc
.LFE1460:
	.size	main, .-main
	.section	.text.unlikely
.LCOLDE2:
	.section	.text.startup
.LHOTE2:
	.section	.text.unlikely
.LCOLDB3:
	.section	.text.startup
.LHOTB3:
	.p2align 4,,15
	.type	_GLOBAL__sub_I_main, @function
_GLOBAL__sub_I_main:
.LFB1647:
	.loc 3 28 0
	.cfi_startproc
.LVL32:
	subq	$8, %rsp
	.cfi_def_cfa_offset 16
.LBB100:
.LBB101:
	.file 4 "/usr/include/c++/5/iostream"
	.loc 4 74 0
	movl	$_ZStL8__ioinit, %edi
	call	_ZNSt8ios_base4InitC1Ev
.LVL33:
	movl	$__dso_handle, %edx
	movl	$_ZStL8__ioinit, %esi
	movl	$_ZNSt8ios_base4InitD1Ev, %edi
.LBE101:
.LBE100:
	.loc 3 28 0
	addq	$8, %rsp
	.cfi_def_cfa_offset 8
.LBB103:
.LBB102:
	.loc 4 74 0
	jmp	__cxa_atexit
.LVL34:
.LBE102:
.LBE103:
	.cfi_endproc
.LFE1647:
	.size	_GLOBAL__sub_I_main, .-_GLOBAL__sub_I_main
	.section	.text.unlikely
.LCOLDE3:
	.section	.text.startup
.LHOTE3:
	.section	.init_array,"aw"
	.align 8
	.quad	_GLOBAL__sub_I_main
	.local	_ZStL8__ioinit
	.comm	_ZStL8__ioinit,1,1
	.text
.Letext0:
	.section	.text.unlikely._ZlsRSoRK6BigNum,"axG",@progbits,_ZlsRSoRK6BigNum,comdat
.Letext_cold0:
	.file 5 "/usr/include/c++/5/cwchar"
	.file 6 "/usr/include/c++/5/bits/exception_ptr.h"
	.file 7 "/usr/include/x86_64-linux-gnu/c++/5/bits/c++config.h"
	.file 8 "/usr/include/c++/5/type_traits"
	.file 9 "/usr/include/c++/5/debug/debug.h"
	.file 10 "/usr/include/c++/5/bits/char_traits.h"
	.file 11 "/usr/include/c++/5/cstdint"
	.file 12 "/usr/include/c++/5/clocale"
	.file 13 "/usr/include/c++/5/cstdlib"
	.file 14 "/usr/include/c++/5/cstdio"
	.file 15 "/usr/include/c++/5/system_error"
	.file 16 "/usr/include/c++/5/bits/ios_base.h"
	.file 17 "/usr/include/c++/5/cwctype"
	.file 18 "/usr/include/c++/5/bits/basic_ios.h"
	.file 19 "/usr/include/c++/5/iosfwd"
	.file 20 "/usr/include/c++/5/bits/ostream.tcc"
	.file 21 "/usr/include/c++/5/bits/ostream_insert.h"
	.file 22 "/usr/include/c++/5/bits/predefined_ops.h"
	.file 23 "/usr/include/c++/5/ext/new_allocator.h"
	.file 24 "/usr/include/c++/5/ext/numeric_traits.h"
	.file 25 "/usr/include/stdio.h"
	.file 26 "/usr/include/libio.h"
	.file 27 "<built-in>"
	.file 28 "/usr/lib/gcc/x86_64-linux-gnu/5/include/stddef.h"
	.file 29 "/usr/include/wchar.h"
	.file 30 "/usr/include/x86_64-linux-gnu/bits/wchar2.h"
	.file 31 "/usr/include/time.h"
	.file 32 "/usr/include/stdint.h"
	.file 33 "/usr/include/locale.h"
	.file 34 "/usr/include/x86_64-linux-gnu/bits/types.h"
	.file 35 "/usr/include/x86_64-linux-gnu/c++/5/bits/atomic_word.h"
	.file 36 "/usr/include/stdlib.h"
	.file 37 "/usr/include/x86_64-linux-gnu/bits/stdlib-float.h"
	.file 38 "/usr/include/x86_64-linux-gnu/bits/stdlib-bsearch.h"
	.file 39 "/usr/include/x86_64-linux-gnu/bits/stdlib.h"
	.file 40 "/usr/include/_G_config.h"
	.file 41 "/usr/include/x86_64-linux-gnu/bits/stdio2.h"
	.file 42 "/usr/include/x86_64-linux-gnu/bits/stdio.h"
	.file 43 "/usr/include/wctype.h"
	.file 44 "/usr/include/c++/5/bits/stl_pair.h"
	.section	.note.GNU-stack,"",@progbits
